target datalayout = "e-m:e-p270:32:32-p271:32:32-p272:64:64-i64:64-i128:128-f80:128-n8:16:32:64-S128"
target triple = "x86_64-pc-linux-gnu"

@max = internal global i32 1000, align 4
@verbose = internal global i32 0, align 4
@.str.20 = private unnamed_addr constant [41 x i8] c"../openssl/test/curve448_internal_test.c\00", align 1
@.str.21 = private unnamed_addr constant [34 x i8] c"ossl_x448(out, in_scalar1, in_u1)\00", align 1
@in_scalar1 = internal constant [56 x i8] c"=&/\DD\F9\EC\8E\88IRf\FE\A1\9A4\D2\88\82\AC\EF\04Q\04\D0\D1\AA\E1!p\0Aw\9C\98L$\F8\CD\D7\8F\BF\F4IC\EB\A3h\F5K)%\9AO\1C`\0A\D3", align 16
@in_u1 = internal constant [56 x i8] c"\06\FC\E6@\FA4\87\BF\DA_l\F2\D5&?\8A\AD\883L\BD\07C\7F\02\0F\08\F9\81M\C01\DD\BD\C3\8C\19\C6\DA%\83\FAT)\DB\94\AD\A1\8A\A7\A7\FBN\F8\A0\86", align 16
@.str.22 = private unnamed_addr constant [33 x i8] c"memcmp(out, out_u1, sizeof(out))\00", align 1
@.str.23 = private unnamed_addr constant [2 x i8] c"0\00", align 1
@out_u1 = internal constant [56 x i8] c"\CE>O\F9Z`\DCf\97\DA\1D\B1\D8^j\FB\DFy\B5\0A$\12\D7Tm_#\9F\E1O\BA\AD\EBD_\C6j\01\B0w\9D\98\229a\11\1E!vb\82\F7=\D9ko", align 16
@.str.24 = private unnamed_addr constant [34 x i8] c"ossl_x448(out, in_scalar2, in_u2)\00", align 1
@in_scalar2 = internal constant [56 x i8] c" =ID(\B89\93Rf]\DC\A4/\9D\E8\FE\F6\00\90\8E\0DF\1C\B0!\F8\C584]\D7|>H\06\E2_F\D31\\D\E0\A5\B47\12\82\DD,\8D[\E3\09_", align 16
@in_u2 = internal constant [56 x i8] c"\0F\BC\C2\F9\93\CDV\D30[\0B}\9EU\D4\C1\A8\FB]\BBR\F8\E9\A1\E9\B6 \1B\16]\01X\94\E5lM5p\BE\E5/\E2\05\E2\8Ax\B9\1C\DF\BD\E7\1C\E8\D1W\DB", align 16
@.str.25 = private unnamed_addr constant [33 x i8] c"memcmp(out, out_u2, sizeof(out))\00", align 1
@out_u2 = internal constant [56 x i8] c"\88J\02Wb9\FFz//c\B2\DBj\9F\F3pG\AC\13V\8E\1E0\FEc\C4\A7\AD\1B>\E3\A5p\0D\F3C!\D6 w\E663\C5u\C1\C9TQN\99\DA|\17\9D", align 16
@.str.26 = private unnamed_addr constant [2 x i8] c".\00", align 1
@stdout = external global ptr, align 8
@.str.27 = private unnamed_addr constant [21 x i8] c"ossl_x448(out, k, u)\00", align 1
@.str.28 = private unnamed_addr constant [36 x i8] c"memcmp(out, out_u3[j], sizeof(out))\00", align 1
@.str.29 = private unnamed_addr constant [23 x i8] c"Failed at iteration %d\00", align 1
@in_u3 = internal constant <{ i8, [55 x i8] }> <{ i8 5, [55 x i8] zeroinitializer }>, align 16

; Function Attrs: nounwind uwtable
define internal i32 @test_x448() #0 {
  %1 = alloca i32, align 4
  %2 = alloca [56 x i8], align 16
  %3 = alloca [56 x i8], align 16
  %4 = alloca [56 x i8], align 16
  %5 = alloca i32, align 4
  %6 = alloca i32, align 4
  %7 = alloca i32, align 4
  call void @llvm.lifetime.start.p0(i64 56, ptr %2) #5
  call void @llvm.lifetime.start.p0(i64 56, ptr %3) #5
  call void @llvm.lifetime.start.p0(i64 56, ptr %4) #5
  call void @llvm.lifetime.start.p0(i64 4, ptr %5) #5
  call void @llvm.lifetime.start.p0(i64 4, ptr %6) #5
  store i32 -1, ptr %6, align 4, !tbaa !4
  %8 = getelementptr inbounds [56 x i8], ptr %4, i64 0, i64 0
  %9 = call i32 @ossl_x448(ptr noundef %8, ptr noundef @in_scalar1, ptr noundef @in_u1)
  %10 = icmp ne i32 %9, 0
  %11 = zext i1 %10 to i32
  %12 = call i32 @test_true(ptr noundef @.str.20, i32 noundef 659, ptr noundef @.str.21, i32 noundef %11)
  %13 = icmp ne i32 %12, 0
  br i1 %13, label %14, label %31

14:                                               ; preds = %0
  %15 = getelementptr inbounds [56 x i8], ptr %4, i64 0, i64 0
  %16 = call i32 @memcmp(ptr noundef %15, ptr noundef @out_u1, i64 noundef 56) #6
  %17 = call i32 @test_int_eq(ptr noundef @.str.20, i32 noundef 660, ptr noundef @.str.22, ptr noundef @.str.23, i32 noundef %16, i32 noundef 0)
  %18 = icmp ne i32 %17, 0
  br i1 %18, label %19, label %31

19:                                               ; preds = %14
  %20 = getelementptr inbounds [56 x i8], ptr %4, i64 0, i64 0
  %21 = call i32 @ossl_x448(ptr noundef %20, ptr noundef @in_scalar2, ptr noundef @in_u2)
  %22 = icmp ne i32 %21, 0
  %23 = zext i1 %22 to i32
  %24 = call i32 @test_true(ptr noundef @.str.20, i32 noundef 661, ptr noundef @.str.24, i32 noundef %23)
  %25 = icmp ne i32 %24, 0
  br i1 %25, label %26, label %31

26:                                               ; preds = %19
  %27 = getelementptr inbounds [56 x i8], ptr %4, i64 0, i64 0
  %28 = call i32 @memcmp(ptr noundef %27, ptr noundef @out_u2, i64 noundef 56) #6
  %29 = call i32 @test_int_eq(ptr noundef @.str.20, i32 noundef 662, ptr noundef @.str.25, ptr noundef @.str.23, i32 noundef %28, i32 noundef 0)
  %30 = icmp ne i32 %29, 0
  br i1 %30, label %32, label %31

31:                                               ; preds = %26, %19, %14, %0
  store i32 0, ptr %1, align 4
  store i32 1, ptr %7, align 4
  br label %92

32:                                               ; preds = %26
  %33 = getelementptr inbounds [56 x i8], ptr %2, i64 0, i64 0
  call void @llvm.memcpy.p0.p0.i64(ptr align 16 %33, ptr align 16 @in_u3, i64 56, i1 false)
  %34 = getelementptr inbounds [56 x i8], ptr %3, i64 0, i64 0
  call void @llvm.memcpy.p0.p0.i64(ptr align 16 %34, ptr align 16 @in_u3, i64 56, i1 false)
  store i32 1, ptr %5, align 4, !tbaa !4
  br label %35

35:                                               ; preds = %88, %32
  %36 = load i32, ptr %5, align 4, !tbaa !4
  %37 = load i32, ptr @max, align 4, !tbaa !4
  %38 = icmp ule i32 %36, %37
  br i1 %38, label %39, label %91

39:                                               ; preds = %35
  %40 = load i32, ptr @verbose, align 4, !tbaa !4
  %41 = icmp ne i32 %40, 0
  br i1 %41, label %42, label %50

42:                                               ; preds = %39
  %43 = load i32, ptr %5, align 4, !tbaa !4
  %44 = urem i32 %43, 10000
  %45 = icmp eq i32 %44, 0
  br i1 %45, label %46, label %50

46:                                               ; preds = %42
  %47 = call i32 (ptr, ...) @printf(ptr noundef @.str.26)
  %48 = load ptr, ptr @stdout, align 8, !tbaa !10
  %49 = call i32 @fflush(ptr noundef %48)
  br label %50

50:                                               ; preds = %46, %42, %39
  %51 = getelementptr inbounds [56 x i8], ptr %4, i64 0, i64 0
  %52 = getelementptr inbounds [56 x i8], ptr %3, i64 0, i64 0
  %53 = getelementptr inbounds [56 x i8], ptr %2, i64 0, i64 0
  %54 = call i32 @ossl_x448(ptr noundef %51, ptr noundef %52, ptr noundef %53)
  %55 = icmp ne i32 %54, 0
  %56 = zext i1 %55 to i32
  %57 = call i32 @test_true(ptr noundef @.str.20, i32 noundef 673, ptr noundef @.str.27, i32 noundef %56)
  %58 = icmp ne i32 %57, 0
  br i1 %58, label %60, label %59

59:                                               ; preds = %50
  store i32 0, ptr %1, align 4
  store i32 1, ptr %7, align 4
  br label %92

60:                                               ; preds = %50
  %61 = load i32, ptr %5, align 4, !tbaa !4
  %62 = icmp eq i32 %61, 1
  br i1 %62, label %69, label %63

63:                                               ; preds = %60
  %64 = load i32, ptr %5, align 4, !tbaa !4
  %65 = icmp eq i32 %64, 1000
  br i1 %65, label %69, label %66

66:                                               ; preds = %63
  %67 = load i32, ptr %5, align 4, !tbaa !4
  %68 = icmp eq i32 %67, 1000000
  br i1 %68, label %69, label %83

69:                                               ; preds = %66, %63, %60
  %70 = load i32, ptr %6, align 4, !tbaa !4
  %71 = add nsw i32 %70, 1
  store i32 %71, ptr %6, align 4, !tbaa !4
  %72 = getelementptr inbounds [56 x i8], ptr %4, i64 0, i64 0
  %73 = load i32, ptr %6, align 4, !tbaa !4
  %74 = sext i32 %73 to i64
  %75 = getelementptr inbounds [3 x [56 x i8]], ptr @out_u3, i64 0, i64 %74
  %76 = getelementptr inbounds [56 x i8], ptr %75, i64 0, i64 0
  %77 = call i32 @memcmp(ptr noundef %72, ptr noundef %76, i64 noundef 56) #6
  %78 = call i32 @test_int_eq(ptr noundef @.str.20, i32 noundef 678, ptr noundef @.str.28, ptr noundef @.str.23, i32 noundef %77, i32 noundef 0)
  %79 = icmp ne i32 %78, 0
  br i1 %79, label %82, label %80

80:                                               ; preds = %69
  %81 = load i32, ptr %5, align 4, !tbaa !4
  call void (ptr, i32, ptr, ...) @test_info(ptr noundef @.str.20, i32 noundef 679, ptr noundef @.str.29, i32 noundef %81)
  store i32 0, ptr %1, align 4
  store i32 1, ptr %7, align 4
  br label %92

82:                                               ; preds = %69
  br label %83

83:                                               ; preds = %82, %66
  %84 = getelementptr inbounds [56 x i8], ptr %2, i64 0, i64 0
  %85 = getelementptr inbounds [56 x i8], ptr %3, i64 0, i64 0
  call void @llvm.memcpy.p0.p0.i64(ptr align 16 %84, ptr align 16 %85, i64 56, i1 false)
  %86 = getelementptr inbounds [56 x i8], ptr %3, i64 0, i64 0
  %87 = getelementptr inbounds [56 x i8], ptr %4, i64 0, i64 0
  call void @llvm.memcpy.p0.p0.i64(ptr align 16 %86, ptr align 16 %87, i64 56, i1 false)
  br label %88

88:                                               ; preds = %83
  %89 = load i32, ptr %5, align 4, !tbaa !4
  %90 = add i32 %89, 1
  store i32 %90, ptr %5, align 4, !tbaa !4
  br label %35, !llvm.loop !13

91:                                               ; preds = %35
  store i32 1, ptr %1, align 4
  store i32 1, ptr %7, align 4
  br label %92

92:                                               ; preds = %91, %80, %59, %31
  call void @llvm.lifetime.end.p0(i64 4, ptr %6) #5
  call void @llvm.lifetime.end.p0(i64 4, ptr %5) #5
  call void @llvm.lifetime.end.p0(i64 56, ptr %4) #5
  call void @llvm.lifetime.end.p0(i64 56, ptr %3) #5
  call void @llvm.lifetime.end.p0(i64 56, ptr %2) #5
  %93 = load i32, ptr %1, align 4
  ret i32 %93
}