; Function Attrs: nounwind uwtable
define internal range(i32 0, 2) i32 @test_x448() #1 {
  %1 = alloca [56 x i8], align 16
  %2 = alloca [56 x i8], align 16
  %3 = alloca [56 x i8], align 16
  call void @llvm.lifetime.start.p0(i64 56, ptr nonnull %1) #8
  call void @llvm.lifetime.start.p0(i64 56, ptr nonnull %2) #8
  call void @llvm.lifetime.start.p0(i64 56, ptr nonnull %3) #8
  %4 = call i32 @ossl_x448(ptr noundef nonnull %3, ptr noundef nonnull @in_scalar1, ptr noundef nonnull @in_u1) #8
  %5 = icmp ne i32 %4, 0
  %6 = zext i1 %5 to i32
  %7 = call i32 @test_true(ptr noundef nonnull @.str.20, i32 noundef 659, ptr noundef nonnull @.str.21, i32 noundef %6) #8
  %.not = icmp eq i32 %7, 0
  br i1 %.not, label %.loopexit, label %8

8:                                                ; preds = %0
  %9 = call i32 @memcmp(ptr noundef nonnull dereferenceable(56) %3, ptr noundef nonnull dereferenceable(56) @out_u1, i64 noundef 56) #9
  %10 = call i32 @test_int_eq(ptr noundef nonnull @.str.20, i32 noundef 660, ptr noundef nonnull @.str.22, ptr noundef nonnull @.str.23, i32 noundef %9, i32 noundef 0) #8
  %.not16 = icmp eq i32 %10, 0
  br i1 %.not16, label %.loopexit, label %11

11:                                               ; preds = %8
  %12 = call i32 @ossl_x448(ptr noundef nonnull %3, ptr noundef nonnull @in_scalar2, ptr noundef nonnull @in_u2) #8
  %13 = icmp ne i32 %12, 0
  %14 = zext i1 %13 to i32
  %15 = call i32 @test_true(ptr noundef nonnull @.str.20, i32 noundef 661, ptr noundef nonnull @.str.24, i32 noundef %14) #8
  %.not17 = icmp eq i32 %15, 0
  br i1 %.not17, label %.loopexit, label %16

16:                                               ; preds = %11
  %17 = call i32 @memcmp(ptr noundef nonnull dereferenceable(56) %3, ptr noundef nonnull dereferenceable(56) @out_u2, i64 noundef 56) #9
  %18 = call i32 @test_int_eq(ptr noundef nonnull @.str.20, i32 noundef 662, ptr noundef nonnull @.str.25, ptr noundef nonnull @.str.23, i32 noundef %17, i32 noundef 0) #8
  %.not18 = icmp eq i32 %18, 0
  br i1 %.not18, label %.loopexit, label %19

19:                                               ; preds = %16
  call void @llvm.memcpy.p0.p0.i64(ptr noundef nonnull align 16 dereferenceable(56) %1, ptr noundef nonnull align 16 dereferenceable(56) @in_u3, i64 56, i1 false)
  call void @llvm.memcpy.p0.p0.i64(ptr noundef nonnull align 16 dereferenceable(56) %2, ptr noundef nonnull align 16 dereferenceable(56) @in_u3, i64 56, i1 false)
  br label %20

20:                                               ; preds = %19, %39
  %.027 = phi i32 [ -1, %19 ], [ %.1, %39 ]
  %.01326 = phi i32 [ 1, %19 ], [ %40, %39 ]
  %.b15 = load i1, ptr @verbose, align 4
  %21 = urem i32 %.01326, 10000
  %22 = icmp eq i32 %21, 0
  %or.cond23 = and i1 %22, %.b15
  br i1 %or.cond23, label %23, label %26

23:                                               ; preds = %20
  %putchar = call i32 @putchar(i32 46)
  %24 = load ptr, ptr @stdout, align 8, !tbaa !6
  %25 = call i32 @fflush(ptr noundef %24)
  br label %26

26:                                               ; preds = %23, %20
  %27 = call i32 @ossl_x448(ptr noundef nonnull %3, ptr noundef nonnull %2, ptr noundef nonnull %1) #8
  %28 = icmp ne i32 %27, 0
  %29 = zext i1 %28 to i32
  %30 = call i32 @test_true(ptr noundef nonnull @.str.20, i32 noundef 673, ptr noundef nonnull @.str.27, i32 noundef %29) #8
  %.not20 = icmp eq i32 %30, 0
  br i1 %.not20, label %.loopexit, label %31

31:                                               ; preds = %26
  switch i32 %.01326, label %39 [
    i32 1000000, label %32
    i32 1000, label %32
    i32 1, label %32
  ]

32:                                               ; preds = %31, %31, %31
  %33 = add nsw i32 %.027, 1
  %34 = sext i32 %33 to i64
  %35 = getelementptr inbounds [3 x [56 x i8]], ptr @out_u3, i64 0, i64 %34
  %36 = call i32 @memcmp(ptr noundef nonnull dereferenceable(56) %3, ptr noundef nonnull dereferenceable(56) %35, i64 noundef 56) #9
  %37 = call i32 @test_int_eq(ptr noundef nonnull @.str.20, i32 noundef 678, ptr noundef nonnull @.str.28, ptr noundef nonnull @.str.23, i32 noundef %36, i32 noundef 0) #8
  %.not21 = icmp eq i32 %37, 0
  br i1 %.not21, label %38, label %39

38:                                               ; preds = %32
  call void (ptr, i32, ptr, ...) @test_info(ptr noundef nonnull @.str.20, i32 noundef 679, ptr noundef nonnull @.str.29, i32 noundef %.01326) #8
  br label %.loopexit

39:                                               ; preds = %31, %32
  %.1 = phi i32 [ %33, %32 ], [ %.027, %31 ]
  call void @llvm.memcpy.p0.p0.i64(ptr noundef nonnull align 16 dereferenceable(56) %1, ptr noundef nonnull align 16 dereferenceable(56) %2, i64 56, i1 false)
  call void @llvm.memcpy.p0.p0.i64(ptr noundef nonnull align 16 dereferenceable(56) %2, ptr noundef nonnull align 16 dereferenceable(56) %3, i64 56, i1 false)
  %40 = add nuw nsw i32 %.01326, 1
  %.b = load i1, ptr @max, align 4
  %41 = select i1 %.b, i32 1000000, i32 1000
  %.not19.not = icmp samesign ult i32 %.01326, %41
  br i1 %.not19.not, label %20, label %.loopexit, !llvm.loop !11

.loopexit:                                        ; preds = %39, %26, %0, %8, %11, %16, %38
  %.014 = phi i32 [ 0, %38 ], [ 0, %16 ], [ 0, %11 ], [ 0, %8 ], [ 0, %0 ], [ 1, %39 ], [ 0, %26 ]
  call void @llvm.lifetime.end.p0(i64 56, ptr nonnull %3) #8
  call void @llvm.lifetime.end.p0(i64 56, ptr nonnull %2) #8
  call void @llvm.lifetime.end.p0(i64 56, ptr nonnull %1) #8
  ret i32 %.014
}